; ModuleID = 'source-C-CXX/10/996.cpp'
source_filename = "source-C-CXX/10/996.cpp"
target datalayout = "e-m:e-p270:32:32-p271:32:32-p272:64:64-i64:64-f80:128-n8:16:32:64-S128"
target triple = "x86_64-pc-linux-gnu"

%"class.std::ios_base::Init" = type { i8 }
%"class.std::basic_istream" = type { i32 (...)**, i64, %"class.std::basic_ios" }
%"class.std::basic_ios" = type { %"class.std::ios_base", %"class.std::basic_ostream"*, i8, i8, %"class.std::basic_streambuf"*, %"class.std::ctype"*, %"class.std::num_put"*, %"class.std::num_get"* }
%"class.std::ios_base" = type { i32 (...)**, i64, i64, i32, i32, i32, %"struct.std::ios_base::_Callback_list"*, %"struct.std::ios_base::_Words", [8 x %"struct.std::ios_base::_Words"], i32, %"struct.std::ios_base::_Words"*, %"class.std::locale" }
%"struct.std::ios_base::_Callback_list" = type { %"struct.std::ios_base::_Callback_list"*, void (i32, %"class.std::ios_base"*, i32)*, i32, i32 }
%"struct.std::ios_base::_Words" = type { i8*, i64 }
%"class.std::locale" = type { %"class.std::locale::_Impl"* }
%"class.std::locale::_Impl" = type { i32, %"class.std::locale::facet"**, i64, %"class.std::locale::facet"**, i8** }
%"class.std::locale::facet" = type <{ i32 (...)**, i32, [4 x i8] }>
%"class.std::basic_ostream" = type { i32 (...)**, %"class.std::basic_ios" }
%"class.std::basic_streambuf" = type { i32 (...)**, i8*, i8*, i8*, i8*, i8*, i8*, %"class.std::locale" }
%"class.std::ctype" = type <{ %"class.std::locale::facet.base", [4 x i8], %struct.__locale_struct*, i8, [7 x i8], i32*, i32*, i16*, i8, [256 x i8], [256 x i8], i8, [6 x i8] }>
%"class.std::locale::facet.base" = type <{ i32 (...)**, i32 }>
%struct.__locale_struct = type { [13 x %struct.__locale_data*], i16*, i32*, i32*, [13 x i8*] }
%struct.__locale_data = type opaque
%"class.std::num_put" = type { %"class.std::locale::facet.base", [4 x i8] }
%"class.std::num_get" = type { %"class.std::locale::facet.base", [4 x i8] }

@_ZStL8__ioinit = internal global %"class.std::ios_base::Init" zeroinitializer, align 1
@__dso_handle = external hidden global i8
@__const.main.b = private unnamed_addr constant [13 x i32] [i32 0, i32 31, i32 28, i32 31, i32 30, i32 31, i32 30, i32 31, i32 31, i32 30, i32 31, i32 30, i32 31], align 16
@__const.main.c = private unnamed_addr constant [13 x i32] [i32 0, i32 31, i32 29, i32 31, i32 30, i32 31, i32 30, i32 31, i32 31, i32 30, i32 31, i32 30, i32 31], align 16
@_ZSt3cin = external global %"class.std::basic_istream", align 8
@_ZSt4cout = external global %"class.std::basic_ostream", align 8
@llvm.global_ctors = appending global [1 x { i32, void ()*, i8* }] [{ i32, void ()*, i8* } { i32 65535, void ()* @_GLOBAL__sub_I_996.cpp, i8* null }]

declare void @_ZNSt8ios_base4InitC1Ev(%"class.std::ios_base::Init"* nonnull align 1 dereferenceable(1)) unnamed_addr #0

; Function Attrs: nounwind
declare void @_ZNSt8ios_base4InitD1Ev(%"class.std::ios_base::Init"* nonnull align 1 dereferenceable(1)) unnamed_addr #1

; Function Attrs: nofree nounwind
declare i32 @__cxa_atexit(void (i8*)*, i8*, i8*) local_unnamed_addr #2

; Function Attrs: mustprogress norecurse sspstrong uwtable
define dso_local i32 @main() local_unnamed_addr #3 {
  %1 = alloca i32, align 4
  %2 = alloca i32, align 4
  %3 = alloca i32, align 4
  %4 = bitcast i32* %1 to i8*
  call void @llvm.lifetime.start.p0i8(i64 4, i8* nonnull %4) #7
  %5 = bitcast i32* %2 to i8*
  call void @llvm.lifetime.start.p0i8(i64 4, i8* nonnull %5) #7
  %6 = bitcast i32* %3 to i8*
  call void @llvm.lifetime.start.p0i8(i64 4, i8* nonnull %6) #7
  %7 = call nonnull align 8 dereferenceable(16) %"class.std::basic_istream"* @_ZNSirsERi(%"class.std::basic_istream"* nonnull align 8 dereferenceable(16) @_ZSt3cin, i32* nonnull align 4 dereferenceable(4) %1)
  %8 = call nonnull align 8 dereferenceable(16) %"class.std::basic_istream"* @_ZNSirsERi(%"class.std::basic_istream"* nonnull align 8 dereferenceable(16) %7, i32* nonnull align 4 dereferenceable(4) %2)
  %9 = call nonnull align 8 dereferenceable(16) %"class.std::basic_istream"* @_ZNSirsERi(%"class.std::basic_istream"* nonnull align 8 dereferenceable(16) %8, i32* nonnull align 4 dereferenceable(4) %3)
  %10 = load i32, i32* %1, align 4, !tbaa !5
  %11 = and i32 %10, 3
  %12 = icmp eq i32 %11, 0
  br i1 %12, label %13, label %89

13:                                               ; preds = %0
  %14 = srem i32 %10, 100
  %15 = icmp ne i32 %14, 0
  %16 = srem i32 %10, 400
  %17 = icmp eq i32 %16, 0
  %18 = or i1 %15, %17
  br i1 %18, label %19, label %89

19:                                               ; preds = %13
  %20 = load i32, i32* %2, align 4, !tbaa !5
  %21 = icmp sgt i32 %20, 1
  br i1 %21, label %22, label %175

22:                                               ; preds = %19
  %23 = zext i32 %20 to i64
  %24 = add nsw i64 %23, -1
  %25 = icmp ult i64 %24, 8
  br i1 %25, label %86, label %26

26:                                               ; preds = %22
  %27 = and i64 %24, -8
  %28 = or i64 %27, 1
  %29 = add nsw i64 %27, -8
  %30 = lshr exact i64 %29, 3
  %31 = add nuw nsw i64 %30, 1
  %32 = and i64 %31, 1
  %33 = icmp eq i64 %29, 0
  br i1 %33, label %64, label %34

34:                                               ; preds = %26
  %35 = and i64 %31, 4611686018427387902
  br label %36

36:                                               ; preds = %36, %34
  %37 = phi i64 [ 0, %34 ], [ %59, %36 ]
  %38 = phi <4 x i32> [ zeroinitializer, %34 ], [ %57, %36 ]
  %39 = phi <4 x i32> [ zeroinitializer, %34 ], [ %58, %36 ]
  %40 = phi i64 [ %35, %34 ], [ %60, %36 ]
  %41 = or i64 %37, 1
  %42 = getelementptr inbounds [13 x i32], [13 x i32]* @__const.main.c, i64 0, i64 %41
  %43 = bitcast i32* %42 to <4 x i32>*
  %44 = load <4 x i32>, <4 x i32>* %43, align 4, !tbaa !5
  %45 = getelementptr inbounds i32, i32* %42, i64 4
  %46 = bitcast i32* %45 to <4 x i32>*
  %47 = load <4 x i32>, <4 x i32>* %46, align 4, !tbaa !5
  %48 = add <4 x i32> %44, %38
  %49 = add <4 x i32> %47, %39
  %50 = or i64 %37, 9
  %51 = getelementptr inbounds [13 x i32], [13 x i32]* @__const.main.c, i64 0, i64 %50
  %52 = bitcast i32* %51 to <4 x i32>*
  %53 = load <4 x i32>, <4 x i32>* %52, align 4, !tbaa !5
  %54 = getelementptr inbounds i32, i32* %51, i64 4
  %55 = bitcast i32* %54 to <4 x i32>*
  %56 = load <4 x i32>, <4 x i32>* %55, align 4, !tbaa !5
  %57 = add <4 x i32> %53, %48
  %58 = add <4 x i32> %56, %49
  %59 = add nuw i64 %37, 16
  %60 = add i64 %40, -2
  %61 = icmp eq i64 %60, 0
  br i1 %61, label %62, label %36, !llvm.loop !9

62:                                               ; preds = %36
  %63 = or i64 %59, 1
  br label %64

64:                                               ; preds = %62, %26
  %65 = phi <4 x i32> [ undef, %26 ], [ %57, %62 ]
  %66 = phi <4 x i32> [ undef, %26 ], [ %58, %62 ]
  %67 = phi i64 [ 1, %26 ], [ %63, %62 ]
  %68 = phi <4 x i32> [ zeroinitializer, %26 ], [ %57, %62 ]
  %69 = phi <4 x i32> [ zeroinitializer, %26 ], [ %58, %62 ]
  %70 = icmp eq i64 %32, 0
  br i1 %70, label %80, label %71

71:                                               ; preds = %64
  %72 = getelementptr inbounds [13 x i32], [13 x i32]* @__const.main.c, i64 0, i64 %67
  %73 = getelementptr inbounds i32, i32* %72, i64 4
  %74 = bitcast i32* %73 to <4 x i32>*
  %75 = load <4 x i32>, <4 x i32>* %74, align 4, !tbaa !5
  %76 = add <4 x i32> %75, %69
  %77 = bitcast i32* %72 to <4 x i32>*
  %78 = load <4 x i32>, <4 x i32>* %77, align 4, !tbaa !5
  %79 = add <4 x i32> %78, %68
  br label %80

80:                                               ; preds = %64, %71
  %81 = phi <4 x i32> [ %65, %64 ], [ %79, %71 ]
  %82 = phi <4 x i32> [ %66, %64 ], [ %76, %71 ]
  %83 = add <4 x i32> %82, %81
  %84 = call i32 @llvm.vector.reduce.add.v4i32(<4 x i32> %83)
  %85 = icmp eq i64 %24, %27
  br i1 %85, label %175, label %86

86:                                               ; preds = %22, %80
  %87 = phi i64 [ 1, %22 ], [ %28, %80 ]
  %88 = phi i32 [ 0, %22 ], [ %84, %80 ]
  br label %167

89:                                               ; preds = %13, %0
  %90 = load i32, i32* %2, align 4, !tbaa !5
  %91 = icmp sgt i32 %90, 1
  br i1 %91, label %92, label %175

92:                                               ; preds = %89
  %93 = zext i32 %90 to i64
  %94 = add nsw i64 %93, -1
  %95 = icmp ult i64 %94, 8
  br i1 %95, label %156, label %96

96:                                               ; preds = %92
  %97 = and i64 %94, -8
  %98 = or i64 %97, 1
  %99 = add nsw i64 %97, -8
  %100 = lshr exact i64 %99, 3
  %101 = add nuw nsw i64 %100, 1
  %102 = and i64 %101, 1
  %103 = icmp eq i64 %99, 0
  br i1 %103, label %134, label %104

104:                                              ; preds = %96
  %105 = and i64 %101, 4611686018427387902
  br label %106

106:                                              ; preds = %106, %104
  %107 = phi i64 [ 0, %104 ], [ %129, %106 ]
  %108 = phi <4 x i32> [ zeroinitializer, %104 ], [ %127, %106 ]
  %109 = phi <4 x i32> [ zeroinitializer, %104 ], [ %128, %106 ]
  %110 = phi i64 [ %105, %104 ], [ %130, %106 ]
  %111 = or i64 %107, 1
  %112 = getelementptr inbounds [13 x i32], [13 x i32]* @__const.main.b, i64 0, i64 %111
  %113 = bitcast i32* %112 to <4 x i32>*
  %114 = load <4 x i32>, <4 x i32>* %113, align 4, !tbaa !5
  %115 = getelementptr inbounds i32, i32* %112, i64 4
  %116 = bitcast i32* %115 to <4 x i32>*
  %117 = load <4 x i32>, <4 x i32>* %116, align 4, !tbaa !5
  %118 = add <4 x i32> %114, %108
  %119 = add <4 x i32> %117, %109
  %120 = or i64 %107, 9
  %121 = getelementptr inbounds [13 x i32], [13 x i32]* @__const.main.b, i64 0, i64 %120
  %122 = bitcast i32* %121 to <4 x i32>*
  %123 = load <4 x i32>, <4 x i32>* %122, align 4, !tbaa !5
  %124 = getelementptr inbounds i32, i32* %121, i64 4
  %125 = bitcast i32* %124 to <4 x i32>*
  %126 = load <4 x i32>, <4 x i32>* %125, align 4, !tbaa !5
  %127 = add <4 x i32> %123, %118
  %128 = add <4 x i32> %126, %119
  %129 = add nuw i64 %107, 16
  %130 = add i64 %110, -2
  %131 = icmp eq i64 %130, 0
  br i1 %131, label %132, label %106, !llvm.loop !12

132:                                              ; preds = %106
  %133 = or i64 %129, 1
  br label %134

134:                                              ; preds = %132, %96
  %135 = phi <4 x i32> [ undef, %96 ], [ %127, %132 ]
  %136 = phi <4 x i32> [ undef, %96 ], [ %128, %132 ]
  %137 = phi i64 [ 1, %96 ], [ %133, %132 ]
  %138 = phi <4 x i32> [ zeroinitializer, %96 ], [ %127, %132 ]
  %139 = phi <4 x i32> [ zeroinitializer, %96 ], [ %128, %132 ]
  %140 = icmp eq i64 %102, 0
  br i1 %140, label %150, label %141

141:                                              ; preds = %134
  %142 = getelementptr inbounds [13 x i32], [13 x i32]* @__const.main.b, i64 0, i64 %137
  %143 = getelementptr inbounds i32, i32* %142, i64 4
  %144 = bitcast i32* %143 to <4 x i32>*
  %145 = load <4 x i32>, <4 x i32>* %144, align 4, !tbaa !5
  %146 = add <4 x i32> %145, %139
  %147 = bitcast i32* %142 to <4 x i32>*
  %148 = load <4 x i32>, <4 x i32>* %147, align 4, !tbaa !5
  %149 = add <4 x i32> %148, %138
  br label %150

150:                                              ; preds = %134, %141
  %151 = phi <4 x i32> [ %135, %134 ], [ %149, %141 ]
  %152 = phi <4 x i32> [ %136, %134 ], [ %146, %141 ]
  %153 = add <4 x i32> %152, %151
  %154 = call i32 @llvm.vector.reduce.add.v4i32(<4 x i32> %153)
  %155 = icmp eq i64 %94, %97
  br i1 %155, label %175, label %156

156:                                              ; preds = %92, %150
  %157 = phi i64 [ 1, %92 ], [ %98, %150 ]
  %158 = phi i32 [ 0, %92 ], [ %154, %150 ]
  br label %159

159:                                              ; preds = %156, %159
  %160 = phi i64 [ %165, %159 ], [ %157, %156 ]
  %161 = phi i32 [ %164, %159 ], [ %158, %156 ]
  %162 = getelementptr inbounds [13 x i32], [13 x i32]* @__const.main.b, i64 0, i64 %160
  %163 = load i32, i32* %162, align 4, !tbaa !5
  %164 = add nsw i32 %163, %161
  %165 = add nuw nsw i64 %160, 1
  %166 = icmp eq i64 %165, %93
  br i1 %166, label %175, label %159, !llvm.loop !13

167:                                              ; preds = %86, %167
  %168 = phi i64 [ %173, %167 ], [ %87, %86 ]
  %169 = phi i32 [ %172, %167 ], [ %88, %86 ]
  %170 = getelementptr inbounds [13 x i32], [13 x i32]* @__const.main.c, i64 0, i64 %168
  %171 = load i32, i32* %170, align 4, !tbaa !5
  %172 = add nsw i32 %171, %169
  %173 = add nuw nsw i64 %168, 1
  %174 = icmp eq i64 %173, %23
  br i1 %174, label %175, label %167, !llvm.loop !15

175:                                              ; preds = %159, %167, %150, %80, %89, %19
  %176 = phi i32 [ 0, %19 ], [ 0, %89 ], [ %84, %80 ], [ %154, %150 ], [ %172, %167 ], [ %164, %159 ]
  %177 = load i32, i32* %3, align 4, !tbaa !5
  %178 = add nsw i32 %177, %176
  %179 = call nonnull align 8 dereferenceable(8) %"class.std::basic_ostream"* @_ZNSolsEi(%"class.std::basic_ostream"* nonnull align 8 dereferenceable(8) @_ZSt4cout, i32 %178)
  call void @llvm.lifetime.end.p0i8(i64 4, i8* nonnull %6) #7
  call void @llvm.lifetime.end.p0i8(i64 4, i8* nonnull %5) #7
  call void @llvm.lifetime.end.p0i8(i64 4, i8* nonnull %4) #7
  ret i32 0
}

; Function Attrs: argmemonly mustprogress nofree nosync nounwind willreturn
declare void @llvm.lifetime.start.p0i8(i64 immarg, i8* nocapture) #4

declare nonnull align 8 dereferenceable(16) %"class.std::basic_istream"* @_ZNSirsERi(%"class.std::basic_istream"* nonnull align 8 dereferenceable(16), i32* nonnull align 4 dereferenceable(4)) local_unnamed_addr #0

declare nonnull align 8 dereferenceable(8) %"class.std::basic_ostream"* @_ZNSolsEi(%"class.std::basic_ostream"* nonnull align 8 dereferenceable(8), i32) local_unnamed_addr #0

; Function Attrs: argmemonly mustprogress nofree nosync nounwind willreturn
declare void @llvm.lifetime.end.p0i8(i64 immarg, i8* nocapture) #4

; Function Attrs: sspstrong uwtable
define internal void @_GLOBAL__sub_I_996.cpp() #5 section ".text.startup" {
  tail call void @_ZNSt8ios_base4InitC1Ev(%"class.std::ios_base::Init"* nonnull align 1 dereferenceable(1) @_ZStL8__ioinit)
  %1 = tail call i32 @__cxa_atexit(void (i8*)* bitcast (void (%"class.std::ios_base::Init"*)* @_ZNSt8ios_base4InitD1Ev to void (i8*)*), i8* getelementptr inbounds (%"class.std::ios_base::Init", %"class.std::ios_base::Init"* @_ZStL8__ioinit, i64 0, i32 0), i8* nonnull @__dso_handle) #7
  ret void
}

; Function Attrs: nofree nosync nounwind readnone willreturn
declare i32 @llvm.vector.reduce.add.v4i32(<4 x i32>) #6


!llvm.module.flags = !{!0, !1, !2, !3}
!llvm.ident = !{!4}

!0 = !{i32 1, !"wchar_size", i32 4}
!1 = !{i32 7, !"PIC Level", i32 2}
!2 = !{i32 7, !"PIE Level", i32 2}
!3 = !{i32 7, !"uwtable", i32 1}
!4 = !{!"clang version 13.0.0"}
!5 = !{!6, !6, i64 0}
!6 = !{!"int", !7, i64 0}
!7 = !{!"omnipotent char", !8, i64 0}
!8 = !{!"Simple C++ TBAA"}
!9 = distinct !{!9, !10, !11}
!10 = !{!"llvm.loop.mustprogress"}
!11 = !{!"llvm.loop.isvectorized", i32 1}
!12 = distinct !{!12, !10, !11}
!13 = distinct !{!13, !10, !14, !11}
!14 = !{!"llvm.loop.unroll.runtime.disable"}
!15 = distinct !{!15, !10, !14, !11}
